ARM GAS  /tmp/cckPPv3P.s 			page 1


   1              		.cpu cortex-m4
   2              		.eabi_attribute 27, 1
   3              		.eabi_attribute 28, 1
   4              		.eabi_attribute 20, 1
   5              		.eabi_attribute 21, 1
   6              		.eabi_attribute 23, 3
   7              		.eabi_attribute 24, 1
   8              		.eabi_attribute 25, 1
   9              		.eabi_attribute 26, 1
  10              		.eabi_attribute 30, 2
  11              		.eabi_attribute 34, 1
  12              		.eabi_attribute 18, 4
  13              		.file	"main.c"
  14              		.text
  15              	.Ltext0:
  16              		.cfi_sections	.debug_frame
  17              		.section	.text.chprintf.constprop.0,"ax",%progbits
  18              		.align	1
  19              		.p2align 4,,15
  20              		.syntax unified
  21              		.thumb
  22              		.thumb_func
  23              		.fpu fpv4-sp-d16
  24              		.type	chprintf.constprop.0, %function
  25              	chprintf.constprop.0:
  26              	.LFB262:
  27              		.file 1 "../e-puck2_main-processor/ChibiOS//os/hal/lib/streams/chprintf.h"
  28              		.loc 1 69 0
  29              		.cfi_startproc
  30              		@ args = 4, pretend = 12, frame = 8
  31              		@ frame_needed = 0, uses_anonymous_args = 1
  32              	.LVL0:
  33 0000 0EB4     		push	{r1, r2, r3}
  34              		.cfi_def_cfa_offset 12
  35              		.cfi_offset 1, -12
  36              		.cfi_offset 2, -8
  37              		.cfi_offset 3, -4
  38 0002 10B5     		push	{r4, lr}
  39              		.cfi_def_cfa_offset 20
  40              		.cfi_offset 4, -20
  41              		.cfi_offset 14, -16
  42 0004 83B0     		sub	sp, sp, #12
  43              		.cfi_def_cfa_offset 32
  44              		.loc 1 69 0
  45 0006 05AA     		add	r2, sp, #20
  46 0008 094C     		ldr	r4, .L6
  47 000a 52F8041B 		ldr	r1, [r2], #4
  48 000e 2368     		ldr	r3, [r4]
  49              		.loc 1 74 0
  50 0010 0848     		ldr	r0, .L6+4
  51              	.LVL1:
  52              		.loc 1 73 0
  53 0012 0092     		str	r2, [sp]
  54              		.loc 1 69 0
  55 0014 0193     		str	r3, [sp, #4]
  56              	.LVL2:
  57              		.loc 1 74 0
ARM GAS  /tmp/cckPPv3P.s 			page 2


  58 0016 FFF7FEFF 		bl	chvprintf
  59              	.LVL3:
  60              		.loc 1 78 0
  61 001a 019A     		ldr	r2, [sp, #4]
  62 001c 2368     		ldr	r3, [r4]
  63 001e 9A42     		cmp	r2, r3
  64 0020 04D1     		bne	.L5
  65 0022 03B0     		add	sp, sp, #12
  66              		.cfi_remember_state
  67              		.cfi_def_cfa_offset 20
  68              		@ sp needed
  69 0024 BDE81040 		pop	{r4, lr}
  70              		.cfi_restore 14
  71              		.cfi_restore 4
  72              		.cfi_def_cfa_offset 12
  73 0028 03B0     		add	sp, sp, #12
  74              		.cfi_restore 3
  75              		.cfi_restore 2
  76              		.cfi_restore 1
  77              		.cfi_def_cfa_offset 0
  78 002a 7047     		bx	lr
  79              	.L5:
  80              		.cfi_restore_state
  81 002c FFF7FEFF 		bl	__stack_chk_fail
  82              	.LVL4:
  83              	.L7:
  84              		.align	2
  85              	.L6:
  86 0030 00000000 		.word	__stack_chk_guard
  87 0034 00000000 		.word	SDU1
  88              		.cfi_endproc
  89              	.LFE262:
  90              		.size	chprintf.constprop.0, .-chprintf.constprop.0
  91              		.section	.text.startup.main,"ax",%progbits
  92              		.align	1
  93              		.p2align 4,,15
  94              		.global	main
  95              		.syntax unified
  96              		.thumb
  97              		.thumb_func
  98              		.fpu fpv4-sp-d16
  99              		.type	main, %function
 100              	main:
 101              	.LFB260:
 102              		.file 2 "main.c"
 103              		.loc 2 27 0
 104              		.cfi_startproc
 105              		@ args = 0, pretend = 0, frame = 16
 106              		@ frame_needed = 0, uses_anonymous_args = 0
 107 0000 2DE9F04F 		push	{r4, r5, r6, r7, r8, r9, r10, fp, lr}
 108              		.cfi_def_cfa_offset 36
 109              		.cfi_offset 4, -36
 110              		.cfi_offset 5, -32
 111              		.cfi_offset 6, -28
 112              		.cfi_offset 7, -24
 113              		.cfi_offset 8, -20
 114              		.cfi_offset 9, -16
ARM GAS  /tmp/cckPPv3P.s 			page 3


 115              		.cfi_offset 10, -12
 116              		.cfi_offset 11, -8
 117              		.cfi_offset 14, -4
 118 0004 2DED028B 		vpush.64	{d8}
 119              		.cfi_def_cfa_offset 44
 120              		.cfi_offset 80, -44
 121              		.cfi_offset 81, -40
 122 0008 814B     		ldr	r3, .L24
 123              		.loc 2 136 0
 124 000a 824A     		ldr	r2, .L24+4
 125              		.loc 2 27 0
 126 000c 1B68     		ldr	r3, [r3]
 127              		.loc 2 136 0
 128 000e 8249     		ldr	r1, .L24+8
 129 0010 8248     		ldr	r0, .L24+12
 130              		.loc 2 164 0
 131 0012 834D     		ldr	r5, .L24+16
 132              		.loc 2 27 0
 133 0014 85B0     		sub	sp, sp, #20
 134              		.cfi_def_cfa_offset 64
 135              		.loc 2 27 0
 136 0016 0393     		str	r3, [sp, #12]
 137              		.loc 2 136 0
 138 0018 FFF7FEFF 		bl	messagebus_init
 139              	.LVL5:
 140              		.loc 2 137 0
 141 001c FFF7FEFF 		bl	halInit
 142              	.LVL6:
 143              		.loc 2 138 0
 144 0020 FFF7FEFF 		bl	chSysInit
 145              	.LVL7:
 146              		.loc 2 139 0
 147 0024 FFF7FEFF 		bl	mpu_init
 148              	.LVL8:
 149              		.loc 2 140 0
 150 0028 FFF7FEFF 		bl	clear_leds
 151              	.LVL9:
 152              		.loc 2 141 0
 153 002c FFF7FEFF 		bl	spi_comm_start
 154              	.LVL10:
 155              		.loc 2 142 0
 156 0030 FFF7FEFF 		bl	motors_init
 157              	.LVL11:
 158              		.loc 2 144 0
 159 0034 0020     		movs	r0, #0
 160 0036 FFF7FEFF 		bl	left_motor_set_speed
 161              	.LVL12:
 162              		.loc 2 145 0
 163 003a 0020     		movs	r0, #0
 164 003c FFF7FEFF 		bl	right_motor_set_speed
 165              	.LVL13:
 166              		.loc 2 146 0
 167 0040 FFF7FEFF 		bl	usb_start
 168              	.LVL14:
 169              		.loc 2 147 0
 170 0044 FFF7FEFF 		bl	VL53L0X_start
 171              	.LVL15:
ARM GAS  /tmp/cckPPv3P.s 			page 4


 172              		.loc 2 148 0
 173 0048 FFF7FEFF 		bl	proximity_start
 174              	.LVL16:
 175              		.loc 2 149 0
 176 004c FFF7FEFF 		bl	calibrate_ir
 177              	.LVL17:
 178              		.loc 2 164 0
 179 0050 D5F85432 		ldr	r3, [r5, #596]
 180 0054 1B68     		ldr	r3, [r3]
 181 0056 1B78     		ldrb	r3, [r3]	@ zero_extendqisi2
 182 0058 042B     		cmp	r3, #4
 183 005a 00F0C980 		beq	.L19
 184              	.L9:
 185              		.loc 2 170 0
 186 005e 0121     		movs	r1, #1
 187 0060 0020     		movs	r0, #0
 188 0062 FFF7FEFF 		bl	set_led
 189              	.LVL18:
 190              		.loc 2 171 0
 191 0066 40F2EE20 		movw	r0, #750
 192 006a FFF7FEFF 		bl	chThdSleep
 193              	.LVL19:
 194              		.loc 2 172 0
 195 006e 0121     		movs	r1, #1
 196 0070 0020     		movs	r0, #0
 197 0072 FFF7FEFF 		bl	set_led
 198              	.LVL20:
 199              		.loc 2 173 0
 200 0076 40F2EE20 		movw	r0, #750
 201 007a FFF7FEFF 		bl	chThdSleep
 202              	.LVL21:
 203              		.loc 2 174 0
 204 007e 0121     		movs	r1, #1
 205 0080 0846     		mov	r0, r1
 206 0082 FFF7FEFF 		bl	set_led
 207              	.LVL22:
 208              		.loc 2 175 0
 209 0086 40F2EE20 		movw	r0, #750
 210 008a FFF7FEFF 		bl	chThdSleep
 211              	.LVL23:
 212              		.loc 2 176 0
 213 008e 0121     		movs	r1, #1
 214 0090 0846     		mov	r0, r1
 215 0092 FFF7FEFF 		bl	set_led
 216              	.LVL24:
 217              		.loc 2 177 0
 218 0096 40F2EE20 		movw	r0, #750
 219 009a FFF7FEFF 		bl	chThdSleep
 220              	.LVL25:
 221              		.loc 2 178 0
 222 009e 0121     		movs	r1, #1
 223 00a0 0220     		movs	r0, #2
 224 00a2 FFF7FEFF 		bl	set_led
 225              	.LVL26:
 226              		.loc 2 179 0
 227 00a6 40F2EE20 		movw	r0, #750
 228 00aa FFF7FEFF 		bl	chThdSleep
ARM GAS  /tmp/cckPPv3P.s 			page 5


 229              	.LVL27:
 230              		.loc 2 180 0
 231 00ae 0121     		movs	r1, #1
 232 00b0 0220     		movs	r0, #2
 233 00b2 FFF7FEFF 		bl	set_led
 234              	.LVL28:
 235              		.loc 2 181 0
 236 00b6 40F2EE20 		movw	r0, #750
 237 00ba FFF7FEFF 		bl	chThdSleep
 238              	.LVL29:
 239              		.loc 2 182 0
 240 00be 0121     		movs	r1, #1
 241 00c0 0320     		movs	r0, #3
 242 00c2 FFF7FEFF 		bl	set_led
 243              	.LVL30:
 244              		.loc 2 183 0
 245 00c6 40F2EE20 		movw	r0, #750
 246 00ca FFF7FEFF 		bl	chThdSleep
 247              	.LVL31:
 248              		.loc 2 184 0
 249 00ce 0121     		movs	r1, #1
 250 00d0 0320     		movs	r0, #3
 251 00d2 FFF7FEFF 		bl	set_led
 252              	.LVL32:
 253              		.loc 2 185 0
 254 00d6 40F2EE20 		movw	r0, #750
 255 00da FFF7FEFF 		bl	chThdSleep
 256              	.LVL33:
 257              		.loc 2 186 0
 258 00de FFF7FEFF 		bl	clear_leds
 259              	.LVL34:
 260              		.loc 2 198 0
 261 00e2 DFED508A 		vldr.32	s17, .L24+20
 262 00e6 9FED508A 		vldr.32	s16, .L24+24
 263              	.L10:
 264              		.loc 2 189 0
 265 00ea 6420     		movs	r0, #100
 266 00ec FFF7FEFF 		bl	chThdSleep
 267              	.LVL35:
 268              		.loc 2 190 0
 269 00f0 FFF7FEFF 		bl	clear_leds
 270              	.LVL36:
 271              		.loc 2 191 0
 272 00f4 FFF7FEFF 		bl	VL53L0X_get_dist_mm
 273              	.LVL37:
 274              		.loc 2 192 0
 275 00f8 D5F85432 		ldr	r3, [r5, #596]
 276 00fc 1B68     		ldr	r3, [r3]
 277 00fe 1B78     		ldrb	r3, [r3]	@ zero_extendqisi2
 278 0100 042B     		cmp	r3, #4
 279              		.loc 2 191 0
 280 0102 0446     		mov	r4, r0
 281              	.LVL38:
 282              		.loc 2 192 0
 283 0104 57D0     		beq	.L20
 284              	.L11:
 285              		.loc 2 197 0
ARM GAS  /tmp/cckPPv3P.s 			page 6


 286 0106 A4F13303 		sub	r3, r4, #51
 287 010a 9BB2     		uxth	r3, r3
 288 010c F82B     		cmp	r3, #248
 289 010e 0DD9     		bls	.L21
 290              		.loc 2 201 0
 291 0110 B4F5967F 		cmp	r4, #300
 292 0114 1ED2     		bcs	.L22
 293              		.loc 2 223 0
 294 0116 1A3C     		subs	r4, r4, #26
 295              	.LVL39:
 296 0118 A4B2     		uxth	r4, r4
 297 011a 182C     		cmp	r4, #24
 298 011c 59D9     		bls	.L23
 299              		.loc 2 228 0
 300 011e 4348     		ldr	r0, .L24+28
 301 0120 FFF7FEFF 		bl	left_motor_set_speed
 302              	.LVL40:
 303              		.loc 2 229 0
 304 0124 4148     		ldr	r0, .L24+28
 305 0126 FFF7FEFF 		bl	right_motor_set_speed
 306              	.LVL41:
 307 012a DEE7     		b	.L10
 308              	.LVL42:
 309              	.L21:
 310              		.loc 2 198 0
 311 012c 07EE904A 		vmov	s15, r4	@ int
 312 0130 F8EEE77A 		vcvt.f32.s32	s15, s15
 313 0134 67EEA87A 		vmul.f32	s15, s15, s17
 314 0138 67EE887A 		vmul.f32	s15, s15, s16
 315 013c FDEEE77A 		vcvt.s32.f32	s15, s15
 316 0140 17EE900A 		vmov	r0, s15	@ int
 317 0144 CDED017A 		vstr.32	s15, [sp, #4]	@ int
 318 0148 FFF7FEFF 		bl	left_motor_set_speed
 319              	.LVL43:
 320              		.loc 2 199 0
 321 014c 0198     		ldr	r0, [sp, #4]
 322 014e FFF7FEFF 		bl	right_motor_set_speed
 323              	.LVL44:
 324 0152 CAE7     		b	.L10
 325              	.L22:
 326              		.loc 2 202 0
 327 0154 0020     		movs	r0, #0
 328 0156 FFF7FEFF 		bl	get_prox
 329              	.LVL45:
 330 015a 0746     		mov	r7, r0
 331              	.LVL46:
 332              		.loc 2 203 0
 333 015c 0120     		movs	r0, #1
 334 015e FFF7FEFF 		bl	get_prox
 335              	.LVL47:
 336 0162 0646     		mov	r6, r0
 337              	.LVL48:
 338              		.loc 2 204 0
 339 0164 0220     		movs	r0, #2
 340 0166 FFF7FEFF 		bl	get_prox
 341              	.LVL49:
 342 016a 8246     		mov	r10, r0
ARM GAS  /tmp/cckPPv3P.s 			page 7


 343              	.LVL50:
 344              		.loc 2 205 0
 345 016c 0320     		movs	r0, #3
 346 016e FFF7FEFF 		bl	get_prox
 347              	.LVL51:
 348 0172 8046     		mov	r8, r0
 349              	.LVL52:
 350              		.loc 2 206 0
 351 0174 0420     		movs	r0, #4
 352 0176 FFF7FEFF 		bl	get_prox
 353              	.LVL53:
 354 017a 0446     		mov	r4, r0
 355              	.LVL54:
 356              		.loc 2 207 0
 357 017c 0520     		movs	r0, #5
 358 017e FFF7FEFF 		bl	get_prox
 359              	.LVL55:
 360 0182 8346     		mov	fp, r0
 361              	.LVL56:
 362              		.loc 2 208 0
 363 0184 0620     		movs	r0, #6
 364 0186 FFF7FEFF 		bl	get_prox
 365              	.LVL57:
 366 018a 8146     		mov	r9, r0
 367              	.LVL58:
 368              		.loc 2 209 0
 369 018c 0720     		movs	r0, #7
 370 018e FFF7FEFF 		bl	get_prox
 371              	.LVL59:
 372              		.loc 2 211 0
 373 0192 3744     		add	r7, r7, r6
 374              	.LVL60:
 375              		.loc 2 212 0
 376 0194 5C44     		add	r4, r4, fp
 377              	.LVL61:
 378              		.loc 2 211 0
 379 0196 5744     		add	r7, r7, r10
 380              		.loc 2 212 0
 381 0198 4C44     		add	r4, r4, r9
 382              		.loc 2 211 0
 383 019a 4744     		add	r7, r7, r8
 384              		.loc 2 212 0
 385 019c 0444     		add	r4, r4, r0
 386              		.loc 2 214 0
 387 019e BFB2     		uxth	r7, r7
 388 01a0 A4B2     		uxth	r4, r4
 389 01a2 A742     		cmp	r7, r4
 390 01a4 1CD2     		bcs	.L15
 391              		.loc 2 215 0
 392 01a6 6FF0F900 		mvn	r0, #249
 393              	.LVL62:
 394 01aa FFF7FEFF 		bl	left_motor_set_speed
 395              	.LVL63:
 396              		.loc 2 216 0
 397 01ae FA20     		movs	r0, #250
 398 01b0 FFF7FEFF 		bl	right_motor_set_speed
 399              	.LVL64:
ARM GAS  /tmp/cckPPv3P.s 			page 8


 400 01b4 99E7     		b	.L10
 401              	.LVL65:
 402              	.L20:
 403              		.loc 2 193 0
 404 01b6 0121     		movs	r1, #1
 405 01b8 0020     		movs	r0, #0
 406 01ba FFF7FEFF 		bl	set_led
 407              	.LVL66:
 408              		.loc 2 194 0
 409 01be 2246     		mov	r2, r4
 410 01c0 1B49     		ldr	r1, .L24+32
 411 01c2 1748     		ldr	r0, .L24+16
 412 01c4 FFF7FEFF 		bl	chprintf.constprop.0
 413              	.LVL67:
 414              		.loc 2 195 0
 415 01c8 1A49     		ldr	r1, .L24+36
 416 01ca 1548     		ldr	r0, .L24+16
 417 01cc FFF7FEFF 		bl	chprintf.constprop.0
 418              	.LVL68:
 419 01d0 99E7     		b	.L11
 420              	.LVL69:
 421              	.L23:
 422              		.loc 2 224 0
 423 01d2 0020     		movs	r0, #0
 424 01d4 FFF7FEFF 		bl	left_motor_set_speed
 425              	.LVL70:
 426              		.loc 2 225 0
 427 01d8 0020     		movs	r0, #0
 428 01da FFF7FEFF 		bl	right_motor_set_speed
 429              	.LVL71:
 430 01de 84E7     		b	.L10
 431              	.LVL72:
 432              	.L15:
 433              		.loc 2 219 0
 434 01e0 FA20     		movs	r0, #250
 435              	.LVL73:
 436 01e2 FFF7FEFF 		bl	left_motor_set_speed
 437              	.LVL74:
 438              		.loc 2 220 0
 439 01e6 6FF0F900 		mvn	r0, #249
 440 01ea FFF7FEFF 		bl	right_motor_set_speed
 441              	.LVL75:
 442 01ee 7CE7     		b	.L10
 443              	.LVL76:
 444              	.L19:
 445              		.loc 2 165 0
 446 01f0 0121     		movs	r1, #1
 447 01f2 0020     		movs	r0, #0
 448 01f4 FFF7FEFF 		bl	set_led
 449              	.LVL77:
 450              		.loc 2 166 0
 451 01f8 FFF7FEFF 		bl	VL53L0X_get_dist_mm
 452              	.LVL78:
 453 01fc 0C49     		ldr	r1, .L24+32
 454 01fe 0246     		mov	r2, r0
 455 0200 2846     		mov	r0, r5
 456 0202 FFF7FEFF 		bl	chprintf.constprop.0
ARM GAS  /tmp/cckPPv3P.s 			page 9


 457              	.LVL79:
 458              		.loc 2 167 0
 459 0206 0C49     		ldr	r1, .L24+40
 460 0208 2846     		mov	r0, r5
 461 020a FFF7FEFF 		bl	chprintf.constprop.0
 462              	.LVL80:
 463 020e 26E7     		b	.L9
 464              	.L25:
 465              		.align	2
 466              	.L24:
 467 0210 00000000 		.word	__stack_chk_guard
 468 0214 00000000 		.word	.LANCHOR0
 469 0218 00000000 		.word	.LANCHOR1
 470 021c 00000000 		.word	.LANCHOR2
 471 0220 00000000 		.word	SDU1
 472 0224 CDCCCC3D 		.word	1036831949
 473 0228 0000C842 		.word	1120403456
 474 022c 70FEFFFF 		.word	-400
 475 0230 00000000 		.word	.LC0
 476 0234 1C000000 		.word	.LC2
 477 0238 08000000 		.word	.LC1
 478              		.cfi_endproc
 479              	.LFE260:
 480              		.size	main, .-main
 481              		.section	.text.__stack_chk_fail,"ax",%progbits
 482              		.align	1
 483              		.p2align 4,,15
 484              		.global	__stack_chk_fail
 485              		.syntax unified
 486              		.thumb
 487              		.thumb_func
 488              		.fpu fpv4-sp-d16
 489              		.type	__stack_chk_fail, %function
 490              	__stack_chk_fail:
 491              	.LFB261:
 492              		.loc 2 242 0
 493              		.cfi_startproc
 494              		@ args = 0, pretend = 0, frame = 8
 495              		@ frame_needed = 0, uses_anonymous_args = 0
 496 0000 00B5     		push	{lr}
 497              		.cfi_def_cfa_offset 4
 498              		.cfi_offset 14, -4
 499 0002 084B     		ldr	r3, .L31
 500 0004 83B0     		sub	sp, sp, #12
 501              		.cfi_def_cfa_offset 16
 502              		.loc 2 242 0
 503 0006 1A68     		ldr	r2, [r3]
 504 0008 0192     		str	r2, [sp, #4]
 505              		.loc 2 243 0
 506 000a 019A     		ldr	r2, [sp, #4]
 507 000c 1B68     		ldr	r3, [r3]
 508 000e 9A42     		cmp	r2, r3
 509 0010 05D1     		bne	.L30
 510 0012 0548     		ldr	r0, .L31+4
 511              		.loc 2 244 0
 512 0014 03B0     		add	sp, sp, #12
 513              		.cfi_remember_state
ARM GAS  /tmp/cckPPv3P.s 			page 10


 514              		.cfi_def_cfa_offset 4
 515              		@ sp needed
 516 0016 5DF804EB 		ldr	lr, [sp], #4
 517              		.cfi_restore 14
 518              		.cfi_def_cfa_offset 0
 519              		.loc 2 243 0
 520 001a FFF7FEBF 		b	chSysHalt
 521              	.LVL81:
 522              	.L30:
 523              		.cfi_restore_state
 524 001e FFF7FEFF 		bl	__stack_chk_fail
 525              	.LVL82:
 526              	.L32:
 527 0022 00BF     		.align	2
 528              	.L31:
 529 0024 00000000 		.word	__stack_chk_guard
 530 0028 00000000 		.word	.LC3
 531              		.cfi_endproc
 532              	.LFE261:
 533              		.size	__stack_chk_fail, .-__stack_chk_fail
 534              		.global	__stack_chk_guard
 535              		.global	bus_condvar
 536              		.global	bus_lock
 537              		.global	bus
 538              		.section	.bss.bus,"aw",%nobits
 539              		.align	2
 540              		.set	.LANCHOR2,. + 0
 541              		.type	bus, %object
 542              		.size	bus, 12
 543              	bus:
 544 0000 00000000 		.space	12
 544      00000000 
 544      00000000 
 545              		.section	.data.__stack_chk_guard,"aw",%progbits
 546              		.align	2
 547              		.type	__stack_chk_guard, %object
 548              		.size	__stack_chk_guard, 4
 549              	__stack_chk_guard:
 550 0000 96E3DEE2 		.word	-488709226
 551              		.section	.data.bus_condvar,"aw",%progbits
 552              		.align	2
 553              		.set	.LANCHOR0,. + 0
 554              		.type	bus_condvar, %object
 555              		.size	bus_condvar, 8
 556              	bus_condvar:
 557 0000 00000000 		.word	bus_condvar
 558 0004 00000000 		.word	bus_condvar
 559              		.section	.data.bus_lock,"aw",%progbits
 560              		.align	2
 561              		.set	.LANCHOR1,. + 0
 562              		.type	bus_lock, %object
 563              		.size	bus_lock, 20
 564              	bus_lock:
 565 0000 00000000 		.word	bus_lock
 566 0004 00000000 		.word	bus_lock
 567 0008 00000000 		.word	0
 568 000c 00000000 		.word	0
ARM GAS  /tmp/cckPPv3P.s 			page 11


 569 0010 00000000 		.word	0
 570              		.section	.rodata.__stack_chk_fail.str1.4,"aMS",%progbits,1
 571              		.align	2
 572              	.LC3:
 573 0000 53746163 		.ascii	"Stack smashing detected\000"
 573      6B20736D 
 573      61736869 
 573      6E672064 
 573      65746563 
 574              		.section	.rodata.main.str1.4,"aMS",%progbits,1
 575              		.align	2
 576              	.LC0:
 577 0000 2534642C 		.ascii	"%4d,\012\000"
 577      0A00
 578 0006 0000     		.space	2
 579              	.LC1:
 580 0008 3D3D3D3D 		.ascii	"=================\012\000"
 580      3D3D3D3D 
 580      3D3D3D3D 
 580      3D3D3D3D 
 580      3D0A00
 581 001b 00       		.space	1
 582              	.LC2:
 583 001c 2D2D2D2D 		.ascii	"-----------\012\000"
 583      2D2D2D2D 
 583      2D2D2D0A 
 583      00
 584              		.text
 585              	.Letext0:
 586              		.file 3 "/home/uos/Downloads/Eclipse_e-puck2_Linux_11_apr_2018_64bits/Eclipse_e-puck2/Tools/gcc-ar
 587              		.file 4 "/home/uos/Downloads/Eclipse_e-puck2_Linux_11_apr_2018_64bits/Eclipse_e-puck2/Tools/gcc-ar
 588              		.file 5 "/home/uos/Downloads/Eclipse_e-puck2_Linux_11_apr_2018_64bits/Eclipse_e-puck2/Tools/gcc-ar
 589              		.file 6 "/home/uos/Downloads/Eclipse_e-puck2_Linux_11_apr_2018_64bits/Eclipse_e-puck2/Tools/gcc-ar
 590              		.file 7 "/home/uos/Downloads/Eclipse_e-puck2_Linux_11_apr_2018_64bits/Eclipse_e-puck2/Tools/gcc-ar
 591              		.file 8 "/home/uos/Downloads/Eclipse_e-puck2_Linux_11_apr_2018_64bits/Eclipse_e-puck2/Tools/gcc-ar
 592              		.file 9 "/home/uos/Downloads/Eclipse_e-puck2_Linux_11_apr_2018_64bits/Eclipse_e-puck2/Tools/gcc-ar
 593              		.file 10 "<built-in>"
 594              		.file 11 "/home/uos/Downloads/Eclipse_e-puck2_Linux_11_apr_2018_64bits/Eclipse_e-puck2/Tools/gcc-a
 595              		.file 12 "/home/uos/Downloads/Eclipse_e-puck2_Linux_11_apr_2018_64bits/Eclipse_e-puck2/Tools/gcc-a
 596              		.file 13 "/home/uos/Downloads/Eclipse_e-puck2_Linux_11_apr_2018_64bits/Eclipse_e-puck2/Tools/gcc-a
 597              		.file 14 "../e-puck2_main-processor/ChibiOS//os/rt/ports/ARMCMx/compilers/GCC/chtypes.h"
 598              		.file 15 "../e-puck2_main-processor/ChibiOS//os/rt/include/chsystypes.h"
 599              		.file 16 "../e-puck2_main-processor/ChibiOS//os/rt/include/chschd.h"
 600              		.file 17 "../e-puck2_main-processor/ChibiOS//os/ext/CMSIS/include/core_cm4.h"
 601              		.file 18 "../e-puck2_main-processor/ChibiOS//os/ext/CMSIS/ST/system_stm32f4xx.h"
 602              		.file 19 "../e-puck2_main-processor/ChibiOS//os/ext/CMSIS/ST/stm32f407xx.h"
 603              		.file 20 "../e-puck2_main-processor/ChibiOS//os/rt/ports/ARMCMx/chcore.h"
 604              		.file 21 "../e-puck2_main-processor/ChibiOS//os/rt/ports/ARMCMx/chcore_v7m.h"
 605              		.file 22 "../e-puck2_main-processor/ChibiOS//os/rt/include/chdebug.h"
 606              		.file 23 "../e-puck2_main-processor/ChibiOS//os/rt/include/chtm.h"
 607              		.file 24 "../e-puck2_main-processor/ChibiOS//os/rt/include/chstats.h"
 608              		.file 25 "../e-puck2_main-processor/ChibiOS//os/rt/include/chsem.h"
 609              		.file 26 "../e-puck2_main-processor/ChibiOS//os/rt/include/chmtx.h"
 610              		.file 27 "../e-puck2_main-processor/ChibiOS//os/rt/include/chregistry.h"
 611              		.file 28 "../e-puck2_main-processor/ChibiOS//os/rt/include/chcond.h"
 612              		.file 29 "../e-puck2_main-processor/ChibiOS//os/rt/include/chevents.h"
 613              		.file 30 "../e-puck2_main-processor/ChibiOS//os/rt/include/chqueues.h"
ARM GAS  /tmp/cckPPv3P.s 			page 12


 614              		.file 31 "../e-puck2_main-processor/ChibiOS//os/rt/include/chstreams.h"
 615              		.file 32 "../e-puck2_main-processor/ChibiOS//os/hal/ports/STM32/STM32F4xx/stm32_dma.h"
 616              		.file 33 "../e-puck2_main-processor/ChibiOS//os/hal/include/hal_ioblock.h"
 617              		.file 34 "../e-puck2_main-processor/ChibiOS//os/hal/ports/STM32/LLD/GPIOv2/pal_lld.h"
 618              		.file 35 "../e-puck2_main-processor/ChibiOS//os/hal/include/adc.h"
 619              		.file 36 "../e-puck2_main-processor/ChibiOS//os/hal/ports/STM32/STM32F4xx/adc_lld.h"
 620              		.file 37 "../e-puck2_main-processor/ChibiOS//os/hal/include/can.h"
 621              		.file 38 "../e-puck2_main-processor/ChibiOS//os/hal/ports/STM32/LLD/can_lld.h"
 622              		.file 39 "../e-puck2_main-processor/ChibiOS//os/hal/include/dac.h"
 623              		.file 40 "../e-puck2_main-processor/ChibiOS//os/hal/ports/STM32/LLD/DACv1/dac_lld.h"
 624              		.file 41 "../e-puck2_main-processor/ChibiOS//os/hal/include/ext.h"
 625              		.file 42 "../e-puck2_main-processor/ChibiOS//os/hal/ports/STM32/LLD/ext_lld.h"
 626              		.file 43 "../e-puck2_main-processor/ChibiOS//os/hal/include/gpt.h"
 627              		.file 44 "../e-puck2_main-processor/ChibiOS//os/hal/ports/STM32/LLD/TIMv1/gpt_lld.h"
 628              		.file 45 "../e-puck2_main-processor/ChibiOS//os/hal/ports/STM32/LLD/TIMv1/stm32_tim.h"
 629              		.file 46 "../e-puck2_main-processor/ChibiOS//os/hal/include/i2c.h"
 630              		.file 47 "../e-puck2_main-processor/ChibiOS//os/hal/ports/STM32/LLD/I2Cv1/i2c_lld.h"
 631              		.file 48 "../e-puck2_main-processor/ChibiOS//os/hal/include/i2s.h"
 632              		.file 49 "../e-puck2_main-processor/ChibiOS//os/hal/ports/STM32/LLD/SPIv1/i2s_lld.h"
 633              		.file 50 "../e-puck2_main-processor/ChibiOS//os/hal/include/pwm.h"
 634              		.file 51 "../e-puck2_main-processor/ChibiOS//os/hal/ports/STM32/LLD/TIMv1/pwm_lld.h"
 635              		.file 52 "../e-puck2_main-processor/ChibiOS//os/hal/include/serial.h"
 636              		.file 53 "../e-puck2_main-processor/ChibiOS//os/hal/ports/STM32/LLD/USARTv1/serial_lld.h"
 637              		.file 54 "../e-puck2_main-processor/ChibiOS//os/hal/include/sdc.h"
 638              		.file 55 "../e-puck2_main-processor/ChibiOS//os/hal/ports/STM32/LLD/sdc_lld.h"
 639              		.file 56 "../e-puck2_main-processor/ChibiOS//os/hal/include/spi.h"
 640              		.file 57 "../e-puck2_main-processor/ChibiOS//os/hal/ports/STM32/LLD/SPIv1/spi_lld.h"
 641              		.file 58 "../e-puck2_main-processor/ChibiOS//os/hal/include/usb.h"
 642              		.file 59 "../e-puck2_main-processor/ChibiOS//os/hal/ports/STM32/LLD/OTGv1/usb_lld.h"
 643              		.file 60 "../e-puck2_main-processor/ChibiOS//os/hal/ports/STM32/LLD/OTGv1/stm32_otg.h"
 644              		.file 61 "../e-puck2_main-processor/ChibiOS//os/hal/include/serial_usb.h"
 645              		.file 62 "/home/uos/Downloads/Eclipse_e-puck2_Linux_11_apr_2018_64bits/Eclipse_e-puck2/Tools/gcc-a
 646              		.file 63 "../e-puck2_main-processor/src/msgbus/messagebus.h"
 647              		.file 64 "../e-puck2_main-processor/src/parameter/parameter.h"
 648              		.file 65 "./main.h"
 649              		.file 66 "../e-puck2_main-processor/src/leds.h"
 650              		.file 67 "../e-puck2_main-processor/src/motors.h"
 651              		.file 68 "../e-puck2_main-processor/src/usbcfg.h"
 652              		.file 69 "../e-puck2_main-processor/ChibiOS//os/rt/include/chsys.h"
 653              		.file 70 "../e-puck2_main-processor/ChibiOS//os/hal/include/hal.h"
 654              		.file 71 "../e-puck2_main-processor/src/memory_protection.h"
 655              		.file 72 "../e-puck2_main-processor/src/spi_comm.h"
 656              		.file 73 "../e-puck2_main-processor/src/sensors/VL53L0X/VL53L0X.h"
 657              		.file 74 "../e-puck2_main-processor/src/sensors/proximity.h"
 658              		.file 75 "../e-puck2_main-processor/ChibiOS//os/rt/include/chthreads.h"